target datalayout = "e-m:e-p270:32:32-p271:32:32-p272:64:64-i64:64-i128:128-f80:128-n8:16:32:64-S128"
target triple = "x86_64-pc-linux-gnu"

%struct.timespec = type { i64, i64 }
%struct.conmgr_callbacks_t = type { ptr, ptr }
%union.pthread_mutex_t = type { %struct.__pthread_mutex_s }
%struct.__pthread_mutex_s = type { i32, i32, i32, i32, i32, i16, i16, %struct.__pthread_internal_list }
%struct.__pthread_internal_list = type { ptr, ptr }
%struct.event_signal_t = type { ptr, %union.pthread_cond_t, i32, i32 }
%union.pthread_cond_t = type { %struct.__pthread_cond_s }
%struct.__pthread_cond_s = type { %union.__atomic_wide_counter, %union.__atomic_wide_counter, [2 x i32], [2 x i32], i32, i32, [2 x i32] }
%union.__atomic_wide_counter = type { i64 }
%struct.slurm_conf_t = type { i64, ptr, i16, ptr, ptr, ptr, ptr, ptr, i16, ptr, ptr, ptr, ptr, ptr, ptr, ptr, i16, ptr, ptr, ptr, ptr, i16, ptr, ptr, ptr, i64, ptr, ptr, ptr, ptr, i16, ptr, ptr, i16, i32, ptr, i32, ptr, i32, i32, ptr, ptr, i64, i64, ptr, i16, i16, ptr, i32, i32, ptr, i32, ptr, i32, i16, i16, i16, ptr, i16, i16, ptr, ptr, i32, i16, i16, ptr, i32, i16, ptr, ptr, ptr, ptr, i16, ptr, ptr, ptr, ptr, i32, ptr, ptr, ptr, ptr, i16, i16, ptr, i32, i32, i32, i16, i16, ptr, ptr, i16, ptr, ptr, i32, i32, i32, i32, i32, i64, i32, i32, i16, ptr, ptr, i32, ptr, ptr, ptr, i16, i32, ptr, ptr, i16, ptr, ptr, i32, i16, ptr, ptr, ptr, ptr, i32, i32, i16, i16, i32, ptr, i16, ptr, i32, i32, i32, i32, i32, i32, ptr, i16, ptr, ptr, i32, i16, ptr, i32, i16, i16, ptr, ptr, ptr, i16, ptr, ptr, ptr, ptr, i16, i16, ptr, i16, ptr, i16, ptr, i16, ptr, i16, ptr, ptr, ptr, ptr, i16, ptr, ptr, ptr, i32, ptr, i32, ptr, ptr, i16, ptr, ptr, i32, i16, ptr, ptr, i16, i16, ptr, i16, ptr, ptr, ptr, i32, ptr, i16, i16, ptr, ptr, ptr, ptr, ptr, ptr, ptr, ptr, i16, i32, i16, ptr, ptr, ptr, ptr, i32, ptr, ptr, ptr, i16, ptr, ptr, ptr, i16, ptr, i16, ptr, i16, i16, ptr }
%struct.conmgr_callback_t = type { ptr, ptr, ptr }
%struct.conmgr_work_control_t = type { i32, i32, %struct.timespec, i32 }
%struct.conmgr_t = type { i32, i32, %struct.timespec, %struct.timespec, %struct.timespec, i32, ptr, ptr, ptr, i8, i8, i64, %struct.timespec, i8, i8, i8, i8, i8, i32, ptr, ptr, %struct.conmgr_callbacks_t, %union.pthread_mutex_t, %struct.anon, %struct.anon.1, %struct.event_signal_t, %struct.event_signal_t, %struct.event_signal_t, %struct.event_signal_t }
%struct.anon = type { i32, ptr, i32, i32, i8, i32 }
%struct.anon.1 = type { i8, i8, %struct.event_signal_t, %struct.event_signal_t }

@.str.6 = private unnamed_addr constant [29 x i8] c"%s: pthread_mutex_lock(): %m\00", align 1
@__func__.conmgr_init = private unnamed_addr constant [12 x i8] c"conmgr_init\00", align 1
@.str.7 = private unnamed_addr constant [32 x i8] c"%s: pthread_atfork() failed: %s\00", align 1
@.str.8 = private unnamed_addr constant [16 x i8] c"on_signal_alarm\00", align 1
@.str.9 = private unnamed_addr constant [31 x i8] c"%s: pthread_mutex_unlock(): %m\00", align 1
@slurm_conf = external global %struct.slurm_conf_t, align 8

; Function Attrs: nounwind uwtable
define dso_local void @conmgr_init(i32 noundef %0, i32 noundef %1, ptr %2, ptr %3) #0 {
  %5 = alloca %struct.conmgr_callbacks_t, align 8
  %6 = alloca i32, align 4
  %7 = alloca i32, align 4
  %8 = alloca i32, align 4
  %9 = alloca i32, align 4
  %10 = alloca %struct.conmgr_callback_t, align 8
  %11 = alloca %struct.conmgr_work_control_t, align 8
  %12 = alloca i32, align 4
  %13 = alloca i32, align 4
  %14 = getelementptr inbounds nuw { ptr, ptr }, ptr %5, i32 0, i32 0
  store ptr %2, ptr %14, align 8
  %15 = getelementptr inbounds nuw { ptr, ptr }, ptr %5, i32 0, i32 1
  store ptr %3, ptr %15, align 8
  store i32 %0, ptr %6, align 4
  store i32 %1, ptr %7, align 4
  %16 = load i32, ptr @mgr, align 8
  %17 = icmp sgt i32 %16, 0
  br i1 %17, label %18, label %20

18:                                               ; preds = %4
  %19 = load i32, ptr @mgr, align 8
  store i32 %19, ptr %7, align 4
  br label %25

20:                                               ; preds = %4
  %21 = load i32, ptr %7, align 4
  %22 = icmp slt i32 %21, 1
  br i1 %22, label %23, label %24

23:                                               ; preds = %20
  store i32 150, ptr %7, align 4
  br label %24

24:                                               ; preds = %23, %20
  br label %25

25:                                               ; preds = %24, %18
  br label %26

26:                                               ; preds = %25
  call void @llvm.lifetime.start.p0(i64 4, ptr %8) #8
  %27 = call i32 @pthread_mutex_lock(ptr noundef getelementptr inbounds nuw (%struct.conmgr_t, ptr @mgr, i32 0, i32 22)) #8
  store i32 %27, ptr %8, align 4
  %28 = load i32, ptr %8, align 4
  %29 = icmp ne i32 %28, 0
  br i1 %29, label %30, label %33

30:                                               ; preds = %26
  %31 = load i32, ptr %8, align 4
  %32 = call ptr @__errno_location() #9
  store i32 %31, ptr %32, align 4
  call void (ptr, ...) @fatal_abort(ptr noundef @.str.6, ptr noundef @__func__.conmgr_init) #10
  unreachable

33:                                               ; preds = %26
  call void @llvm.lifetime.end.p0(i64 4, ptr %8) #8
  br label %34

34:                                               ; preds = %33
  store i8 0, ptr getelementptr inbounds nuw (%struct.conmgr_t, ptr @mgr, i32 0, i32 14), align 1
  %35 = load i32, ptr getelementptr inbounds nuw (%struct.conmgr_t, ptr @mgr, i32 0, i32 23), align 8
  %36 = icmp sgt i32 %35, 0
  br i1 %36, label %37, label %39

37:                                               ; preds = %34
  %38 = load i32, ptr getelementptr inbounds nuw (%struct.conmgr_t, ptr @mgr, i32 0, i32 23), align 8
  store i32 %38, ptr %6, align 4
  br label %39

39:                                               ; preds = %37, %34
  %40 = load i32, ptr %6, align 4
  call void @workers_init(i32 noundef %40)
  %41 = load i8, ptr getelementptr inbounds nuw (%struct.conmgr_t, ptr @mgr, i32 0, i32 10), align 1, !range !8, !noundef !9
  %42 = trunc i8 %41 to i1
  br i1 %42, label %58, label %43

43:                                               ; preds = %39
  call void @llvm.lifetime.start.p0(i64 4, ptr %9) #8
  %44 = call i32 @pthread_atfork(ptr noundef null, ptr noundef null, ptr noundef @_atfork_child) #8
  store i32 %44, ptr %9, align 4
  %45 = icmp ne i32 %44, 0
  br i1 %45, label %46, label %49

46:                                               ; preds = %43
  %47 = load i32, ptr %9, align 4
  %48 = call ptr @slurm_strerror(i32 noundef %47)
  call void (ptr, ...) @fatal_abort(ptr noundef @.str.7, ptr noundef @__func__.conmgr_init, ptr noundef %48) #10
  unreachable

49:                                               ; preds = %43
  %50 = getelementptr inbounds nuw %struct.conmgr_callback_t, ptr %10, i32 0, i32 0
  store ptr @on_signal_alarm, ptr %50, align 8
  %51 = getelementptr inbounds nuw %struct.conmgr_callback_t, ptr %10, i32 0, i32 1
  store ptr null, ptr %51, align 8
  %52 = getelementptr inbounds nuw %struct.conmgr_callback_t, ptr %10, i32 0, i32 2
  store ptr @.str.8, ptr %52, align 8
  %53 = getelementptr inbounds nuw %struct.conmgr_work_control_t, ptr %11, i32 0, i32 0
  store i32 1, ptr %53, align 8
  %54 = getelementptr inbounds nuw %struct.conmgr_work_control_t, ptr %11, i32 0, i32 1
  store i32 16, ptr %54, align 4
  %55 = getelementptr inbounds nuw %struct.conmgr_work_control_t, ptr %11, i32 0, i32 2
  call void @llvm.memset.p0.i64(ptr align 8 %55, i8 0, i64 16, i1 false)
  %56 = getelementptr inbounds nuw %struct.conmgr_work_control_t, ptr %11, i32 0, i32 3
  store i32 14, ptr %56, align 8
  %57 = getelementptr i8, ptr %11, i64 28
  call void @llvm.memset.p0.i64(ptr align 4 %57, i8 0, i64 4, i1 false)
  call void @add_work(i1 noundef zeroext true, ptr noundef null, ptr noundef byval(%struct.conmgr_callback_t) align 8 %10, ptr noundef byval(%struct.conmgr_work_control_t) align 8 %11, i32 noundef 0, ptr noundef @__func__.conmgr_init)
  store i8 1, ptr getelementptr inbounds nuw (%struct.conmgr_t, ptr @mgr, i32 0, i32 10), align 1
  call void @llvm.lifetime.end.p0(i64 4, ptr %9) #8
  br label %91

58:                                               ; preds = %39
  %59 = load i32, ptr %7, align 4
  %60 = load i32, ptr getelementptr inbounds nuw (%struct.conmgr_t, ptr @mgr, i32 0, i32 5), align 8
  %61 = icmp sgt i32 %59, %60
  br i1 %61, label %62, label %64

62:                                               ; preds = %58
  %63 = load i32, ptr %7, align 4
  br label %66

64:                                               ; preds = %58
  %65 = load i32, ptr getelementptr inbounds nuw (%struct.conmgr_t, ptr @mgr, i32 0, i32 5), align 8
  br label %66

66:                                               ; preds = %64, %62
  %67 = phi i32 [ %63, %62 ], [ %65, %64 ]
  store i32 %67, ptr getelementptr inbounds nuw (%struct.conmgr_t, ptr @mgr, i32 0, i32 5), align 8
  %68 = getelementptr inbounds nuw %struct.conmgr_callbacks_t, ptr %5, i32 0, i32 0
  %69 = load ptr, ptr %68, align 8
  %70 = icmp ne ptr %69, null
  br i1 %70, label %71, label %74

71:                                               ; preds = %66
  %72 = getelementptr inbounds nuw %struct.conmgr_callbacks_t, ptr %5, i32 0, i32 0
  %73 = load ptr, ptr %72, align 8
  store ptr %73, ptr getelementptr inbounds nuw (%struct.conmgr_t, ptr @mgr, i32 0, i32 21), align 8
  br label %74

74:                                               ; preds = %71, %66
  %75 = getelementptr inbounds nuw %struct.conmgr_callbacks_t, ptr %5, i32 0, i32 1
  %76 = load ptr, ptr %75, align 8
  %77 = icmp ne ptr %76, null
  br i1 %77, label %78, label %81

78:                                               ; preds = %74
  %79 = getelementptr inbounds nuw %struct.conmgr_callbacks_t, ptr %5, i32 0, i32 1
  %80 = load ptr, ptr %79, align 8
  store ptr %80, ptr getelementptr inbounds nuw (%struct.conmgr_callbacks_t, ptr getelementptr inbounds nuw (%struct.conmgr_t, ptr @mgr, i32 0, i32 21), i32 0, i32 1), align 8
  br label %81

81:                                               ; preds = %78, %74
  br label %82

82:                                               ; preds = %81
  call void @llvm.lifetime.start.p0(i64 4, ptr %12) #8
  %83 = call i32 @pthread_mutex_unlock(ptr noundef getelementptr inbounds nuw (%struct.conmgr_t, ptr @mgr, i32 0, i32 22)) #8
  store i32 %83, ptr %12, align 4
  %84 = load i32, ptr %12, align 4
  %85 = icmp ne i32 %84, 0
  br i1 %85, label %86, label %89

86:                                               ; preds = %82
  %87 = load i32, ptr %12, align 4
  %88 = call ptr @__errno_location() #9
  store i32 %87, ptr %88, align 4
  call void (ptr, ...) @fatal_abort(ptr noundef @.str.9, ptr noundef @__func__.conmgr_init) #10
  unreachable

89:                                               ; preds = %82
  call void @llvm.lifetime.end.p0(i64 4, ptr %12) #8
  br label %90

90:                                               ; preds = %89
  br label %141

91:                                               ; preds = %49
  %92 = load i32, ptr getelementptr inbounds nuw (%struct.conmgr_t, ptr @mgr, i32 0, i32 1), align 4
  %93 = icmp ne i32 %92, 0
  br i1 %93, label %97, label %94

94:                                               ; preds = %91
  %95 = load i16, ptr getelementptr inbounds nuw (%struct.slurm_conf_t, ptr @slurm_conf, i32 0, i32 110), align 8
  %96 = zext i16 %95 to i32
  store i32 %96, ptr getelementptr inbounds nuw (%struct.conmgr_t, ptr @mgr, i32 0, i32 1), align 4
  br label %97

97:                                               ; preds = %94, %91
  %98 = load i64, ptr getelementptr inbounds nuw (%struct.timespec, ptr getelementptr inbounds nuw (%struct.conmgr_t, ptr @mgr, i32 0, i32 2), i32 0, i32 1), align 8
  %99 = icmp ne i64 %98, 0
  br i1 %99, label %106, label %100

100:                                              ; preds = %97
  %101 = load i64, ptr getelementptr inbounds nuw (%struct.conmgr_t, ptr @mgr, i32 0, i32 2), align 8
  %102 = icmp ne i64 %101, 0
  br i1 %102, label %106, label %103

103:                                              ; preds = %100
  %104 = load i16, ptr getelementptr inbounds nuw (%struct.slurm_conf_t, ptr @slurm_conf, i32 0, i32 110), align 8
  %105 = zext i16 %104 to i64
  store i64 %105, ptr getelementptr inbounds nuw (%struct.conmgr_t, ptr @mgr, i32 0, i32 2), align 8
  br label %106

106:                                              ; preds = %103, %100, %97
  %107 = load i64, ptr getelementptr inbounds nuw (%struct.timespec, ptr getelementptr inbounds nuw (%struct.conmgr_t, ptr @mgr, i32 0, i32 3), i32 0, i32 1), align 8
  %108 = icmp ne i64 %107, 0
  br i1 %108, label %115, label %109

109:                                              ; preds = %106
  %110 = load i64, ptr getelementptr inbounds nuw (%struct.conmgr_t, ptr @mgr, i32 0, i32 3), align 8
  %111 = icmp ne i64 %110, 0
  br i1 %111, label %115, label %112

112:                                              ; preds = %109
  %113 = load i16, ptr getelementptr inbounds nuw (%struct.slurm_conf_t, ptr @slurm_conf, i32 0, i32 110), align 8
  %114 = zext i16 %113 to i64
  store i64 %114, ptr getelementptr inbounds nuw (%struct.conmgr_t, ptr @mgr, i32 0, i32 3), align 8
  br label %115

115:                                              ; preds = %112, %109, %106
  %116 = load i64, ptr getelementptr inbounds nuw (%struct.timespec, ptr getelementptr inbounds nuw (%struct.conmgr_t, ptr @mgr, i32 0, i32 4), i32 0, i32 1), align 8
  %117 = icmp ne i64 %116, 0
  br i1 %117, label %124, label %118

118:                                              ; preds = %115
  %119 = load i64, ptr getelementptr inbounds nuw (%struct.conmgr_t, ptr @mgr, i32 0, i32 4), align 8
  %120 = icmp ne i64 %119, 0
  br i1 %120, label %124, label %121

121:                                              ; preds = %118
  %122 = load i16, ptr getelementptr inbounds nuw (%struct.slurm_conf_t, ptr @slurm_conf, i32 0, i32 110), align 8
  %123 = zext i16 %122 to i64
  store i64 %123, ptr getelementptr inbounds nuw (%struct.conmgr_t, ptr @mgr, i32 0, i32 4), align 8
  br label %124

124:                                              ; preds = %121, %118, %115
  %125 = load i32, ptr %7, align 4
  store i32 %125, ptr getelementptr inbounds nuw (%struct.conmgr_t, ptr @mgr, i32 0, i32 5), align 8
  %126 = call ptr @list_create(ptr noundef null)
  store ptr %126, ptr getelementptr inbounds nuw (%struct.conmgr_t, ptr @mgr, i32 0, i32 6), align 8
  %127 = call ptr @list_create(ptr noundef null)
  store ptr %127, ptr getelementptr inbounds nuw (%struct.conmgr_t, ptr @mgr, i32 0, i32 7), align 8
  %128 = call ptr @list_create(ptr noundef null)
  store ptr %128, ptr getelementptr inbounds nuw (%struct.conmgr_t, ptr @mgr, i32 0, i32 8), align 8
  call void @llvm.memcpy.p0.p0.i64(ptr align 8 getelementptr inbounds nuw (%struct.conmgr_t, ptr @mgr, i32 0, i32 21), ptr align 8 %5, i64 16, i1 false)
  %129 = call ptr @list_create(ptr noundef null)
  store ptr %129, ptr getelementptr inbounds nuw (%struct.conmgr_t, ptr @mgr, i32 0, i32 20), align 8
  call void @init_delayed_work()
  %130 = load i32, ptr getelementptr inbounds nuw (%struct.conmgr_t, ptr @mgr, i32 0, i32 5), align 8
  call void @pollctl_init(i32 noundef %130)
  store i8 1, ptr getelementptr inbounds nuw (%struct.conmgr_t, ptr @mgr, i32 0, i32 9), align 8
  br label %131

131:                                              ; preds = %124
  call void @llvm.lifetime.start.p0(i64 4, ptr %13) #8
  %132 = call i32 @pthread_mutex_unlock(ptr noundef getelementptr inbounds nuw (%struct.conmgr_t, ptr @mgr, i32 0, i32 22)) #8
  store i32 %132, ptr %13, align 4
  %133 = load i32, ptr %13, align 4
  %134 = icmp ne i32 %133, 0
  br i1 %134, label %135, label %138

135:                                              ; preds = %131
  %136 = load i32, ptr %13, align 4
  %137 = call ptr @__errno_location() #9
  store i32 %136, ptr %137, align 4
  call void (ptr, ...) @fatal_abort(ptr noundef @.str.9, ptr noundef @__func__.conmgr_init) #10
  unreachable

138:                                              ; preds = %131
  call void @llvm.lifetime.end.p0(i64 4, ptr %13) #8
  br label %139

139:                                              ; preds = %138
  %140 = call i32 @atexit(ptr noundef @conmgr_request_shutdown) #8
  br label %141

141:                                              ; preds = %139, %90
  ret void
}