; Function Attrs: nounwind uwtable
define dso_local void @conmgr_init(i32 noundef %0, i32 noundef %1, ptr %2, ptr %3) local_unnamed_addr #0 {
  %5 = alloca %struct.conmgr_callback_t, align 8
  %6 = alloca %struct.conmgr_work_control_t, align 8
  %7 = load i32, ptr @mgr, align 8
  %8 = icmp sgt i32 %7, 0
  %9 = icmp slt i32 %1, 1
  %spec.store.select = select i1 %9, i32 150, i32 %1
  %.019 = select i1 %8, i32 %7, i32 %spec.store.select
  %10 = tail call i32 @pthread_mutex_lock(ptr noundef nonnull getelementptr inbounds nuw (i8, ptr @mgr, i64 168)) #11
  %.not = icmp eq i32 %10, 0
  br i1 %.not, label %13, label %11

11:                                               ; preds = %4
  %12 = tail call ptr @__errno_location() #12
  store i32 %10, ptr %12, align 4
  tail call void (ptr, ...) @fatal_abort(ptr noundef nonnull @.str.6, ptr noundef nonnull @__func__.conmgr_init) #13
  unreachable

13:                                               ; preds = %4
  store i8 0, ptr getelementptr inbounds nuw (i8, ptr @mgr, i64 121), align 1
  %14 = load i32, ptr getelementptr inbounds nuw (i8, ptr @mgr, i64 208), align 8
  %15 = icmp sgt i32 %14, 0
  %spec.select = select i1 %15, i32 %14, i32 %0
  tail call void @workers_init(i32 noundef %spec.select) #11
  %16 = load i8, ptr getelementptr inbounds nuw (i8, ptr @mgr, i64 89), align 1, !range !8, !noundef !9
  %17 = trunc nuw i8 %16 to i1
  br i1 %17, label %30, label %18

18:                                               ; preds = %13
  %19 = tail call i32 @pthread_atfork(ptr noundef null, ptr noundef null, ptr noundef nonnull @_atfork_child) #11
  %.not28 = icmp eq i32 %19, 0
  br i1 %.not28, label %22, label %20

20:                                               ; preds = %18
  %21 = tail call ptr @slurm_strerror(i32 noundef %19) #11
  tail call void (ptr, ...) @fatal_abort(ptr noundef nonnull @.str.7, ptr noundef nonnull @__func__.conmgr_init, ptr noundef %21) #13
  unreachable

22:                                               ; preds = %18
  store ptr @on_signal_alarm, ptr %5, align 8
  %23 = getelementptr inbounds nuw i8, ptr %5, i64 8
  store ptr null, ptr %23, align 8
  %24 = getelementptr inbounds nuw i8, ptr %5, i64 16
  store ptr @.str.8, ptr %24, align 8
  store i32 1, ptr %6, align 8
  %25 = getelementptr inbounds nuw i8, ptr %6, i64 4
  store i32 16, ptr %25, align 4
  %26 = getelementptr inbounds nuw i8, ptr %6, i64 8
  call void @llvm.memset.p0.i64(ptr noundef nonnull align 8 dereferenceable(16) %26, i8 0, i64 16, i1 false)
  %27 = getelementptr inbounds nuw i8, ptr %6, i64 24
  store i32 14, ptr %27, align 8
  %28 = getelementptr inbounds nuw i8, ptr %6, i64 28
  store i32 0, ptr %28, align 4
  tail call void @add_work(i1 noundef zeroext true, ptr noundef null, ptr noundef nonnull byval(%struct.conmgr_callback_t) align 8 %5, ptr noundef nonnull byval(%struct.conmgr_work_control_t) align 8 %6, i32 noundef 0, ptr noundef nonnull @__func__.conmgr_init) #11
  store i8 1, ptr getelementptr inbounds nuw (i8, ptr @mgr, i64 89), align 1
  %29 = load i32, ptr getelementptr inbounds nuw (i8, ptr @mgr, i64 4), align 4
  %.not29 = icmp eq i32 %29, 0
  br i1 %.not29, label %40, label %43

30:                                               ; preds = %13
  %31 = load i32, ptr getelementptr inbounds nuw (i8, ptr @mgr, i64 56), align 8
  %32 = tail call i32 @llvm.smax.i32(i32 %.019, i32 %31)
  store i32 %32, ptr getelementptr inbounds nuw (i8, ptr @mgr, i64 56), align 8
  %.not31 = icmp eq ptr %2, null
  br i1 %.not31, label %34, label %33

33:                                               ; preds = %30
  store ptr %2, ptr getelementptr inbounds nuw (i8, ptr @mgr, i64 152), align 8
  br label %34

34:                                               ; preds = %33, %30
  %.not32 = icmp eq ptr %3, null
  br i1 %.not32, label %36, label %35

35:                                               ; preds = %34
  store ptr %3, ptr getelementptr inbounds nuw (i8, ptr @mgr, i64 160), align 8
  br label %36

36:                                               ; preds = %34, %35
  %37 = tail call i32 @pthread_mutex_unlock(ptr noundef nonnull getelementptr inbounds nuw (i8, ptr @mgr, i64 168)) #11
  %.not33 = icmp eq i32 %37, 0
  br i1 %.not33, label %78, label %38

38:                                               ; preds = %36
  %39 = tail call ptr @__errno_location() #12
  store i32 %37, ptr %39, align 4
  tail call void (ptr, ...) @fatal_abort(ptr noundef nonnull @.str.9, ptr noundef nonnull @__func__.conmgr_init) #13
  unreachable

40:                                               ; preds = %22
  %41 = load i16, ptr getelementptr inbounds nuw (i8, ptr @slurm_conf, i64 744), align 8
  %42 = zext i16 %41 to i32
  store i32 %42, ptr getelementptr inbounds nuw (i8, ptr @mgr, i64 4), align 4
  br label %43

43:                                               ; preds = %40, %22
  %44 = load i64, ptr getelementptr inbounds nuw (i8, ptr @mgr, i64 16), align 8
  %45 = icmp ne i64 %44, 0
  %46 = load i64, ptr getelementptr inbounds nuw (i8, ptr @mgr, i64 8), align 8
  %47 = icmp ne i64 %46, 0
  %or.cond = select i1 %45, i1 true, i1 %47
  br i1 %or.cond, label %51, label %48

48:                                               ; preds = %43
  %49 = load i16, ptr getelementptr inbounds nuw (i8, ptr @slurm_conf, i64 744), align 8
  %50 = zext i16 %49 to i64
  store i64 %50, ptr getelementptr inbounds nuw (i8, ptr @mgr, i64 8), align 8
  br label %51

51:                                               ; preds = %48, %43
  %52 = load i64, ptr getelementptr inbounds nuw (i8, ptr @mgr, i64 32), align 8
  %53 = icmp ne i64 %52, 0
  %54 = load i64, ptr getelementptr inbounds nuw (i8, ptr @mgr, i64 24), align 8
  %55 = icmp ne i64 %54, 0
  %or.cond3 = select i1 %53, i1 true, i1 %55
  br i1 %or.cond3, label %59, label %56

56:                                               ; preds = %51
  %57 = load i16, ptr getelementptr inbounds nuw (i8, ptr @slurm_conf, i64 744), align 8
  %58 = zext i16 %57 to i64
  store i64 %58, ptr getelementptr inbounds nuw (i8, ptr @mgr, i64 24), align 8
  br label %59

59:                                               ; preds = %56, %51
  %60 = load i64, ptr getelementptr inbounds nuw (i8, ptr @mgr, i64 48), align 8
  %61 = icmp ne i64 %60, 0
  %62 = load i64, ptr getelementptr inbounds nuw (i8, ptr @mgr, i64 40), align 8
  %63 = icmp ne i64 %62, 0
  %or.cond5 = select i1 %61, i1 true, i1 %63
  br i1 %or.cond5, label %67, label %64

64:                                               ; preds = %59
  %65 = load i16, ptr getelementptr inbounds nuw (i8, ptr @slurm_conf, i64 744), align 8
  %66 = zext i16 %65 to i64
  store i64 %66, ptr getelementptr inbounds nuw (i8, ptr @mgr, i64 40), align 8
  br label %67

67:                                               ; preds = %64, %59
  store i32 %.019, ptr getelementptr inbounds nuw (i8, ptr @mgr, i64 56), align 8
  %68 = tail call ptr @list_create(ptr noundef null) #11
  store ptr %68, ptr getelementptr inbounds nuw (i8, ptr @mgr, i64 64), align 8
  %69 = tail call ptr @list_create(ptr noundef null) #11
  store ptr %69, ptr getelementptr inbounds nuw (i8, ptr @mgr, i64 72), align 8
  %70 = tail call ptr @list_create(ptr noundef null) #11
  store ptr %70, ptr getelementptr inbounds nuw (i8, ptr @mgr, i64 80), align 8
  store ptr %2, ptr getelementptr inbounds nuw (i8, ptr @mgr, i64 152), align 8
  store ptr %3, ptr getelementptr inbounds nuw (i8, ptr @mgr, i64 160), align 8
  %71 = tail call ptr @list_create(ptr noundef null) #11
  store ptr %71, ptr getelementptr inbounds nuw (i8, ptr @mgr, i64 144), align 8
  tail call void @init_delayed_work() #11
  %72 = load i32, ptr getelementptr inbounds nuw (i8, ptr @mgr, i64 56), align 8
  tail call void @pollctl_init(i32 noundef %72) #11
  store i8 1, ptr getelementptr inbounds nuw (i8, ptr @mgr, i64 88), align 8
  %73 = tail call i32 @pthread_mutex_unlock(ptr noundef nonnull getelementptr inbounds nuw (i8, ptr @mgr, i64 168)) #11
  %.not30 = icmp eq i32 %73, 0
  br i1 %.not30, label %76, label %74

74:                                               ; preds = %67
  %75 = tail call ptr @__errno_location() #12
  store i32 %73, ptr %75, align 4
  tail call void (ptr, ...) @fatal_abort(ptr noundef nonnull @.str.9, ptr noundef nonnull @__func__.conmgr_init) #13
  unreachable

76:                                               ; preds = %67
  %77 = tail call i32 @atexit(ptr noundef nonnull @conmgr_request_shutdown) #11
  br label %78

78:                                               ; preds = %36, %76
  ret void
}